target datalayout = "e-m:e-p270:32:32-p271:32:32-p272:64:64-i64:64-i128:128-f80:128-n8:16:32:64-S128"
target triple = "x86_64-pc-linux-gnu"

@gBundle = internal global ptr null, align 8

; Function Attrs: nounwind uwtable
define dso_local ptr @u_wmsg_setPath(ptr noundef %0, ptr noundef %1) #0 {
  %3 = alloca ptr, align 8
  %4 = alloca ptr, align 8
  %5 = alloca ptr, align 8
  %6 = alloca ptr, align 8
  %7 = alloca i32, align 4
  store ptr %0, ptr %4, align 8, !tbaa !4
  store ptr %1, ptr %5, align 8, !tbaa !9
  %8 = load ptr, ptr %5, align 8, !tbaa !9
  %9 = load i32, ptr %8, align 4, !tbaa !10
  %10 = icmp sgt i32 %9, 0
  br i1 %10, label %11, label %12

11:                                               ; preds = %2
  store ptr null, ptr %3, align 8
  br label %32

12:                                               ; preds = %2
  %13 = load ptr, ptr @gBundle, align 8, !tbaa !12
  %14 = icmp ne ptr %13, null
  br i1 %14, label %15, label %17

15:                                               ; preds = %12
  %16 = load ptr, ptr %5, align 8, !tbaa !9
  store i32 1, ptr %16, align 4, !tbaa !10
  store ptr null, ptr %3, align 8
  br label %32

17:                                               ; preds = %12
  call void @llvm.lifetime.start.p0(i64 8, ptr %6) #8
  store ptr null, ptr %6, align 8, !tbaa !12
  %18 = load ptr, ptr %4, align 8, !tbaa !4
  %19 = load ptr, ptr %5, align 8, !tbaa !9
  %20 = call ptr @ures_open_77(ptr noundef %18, ptr noundef null, ptr noundef %19)
  store ptr %20, ptr %6, align 8, !tbaa !12
  %21 = load ptr, ptr %5, align 8, !tbaa !9
  %22 = load i32, ptr %21, align 4, !tbaa !10
  %23 = icmp sgt i32 %22, 0
  br i1 %23, label %24, label %25

24:                                               ; preds = %17
  store ptr null, ptr %3, align 8
  store i32 1, ptr %7, align 4
  br label %27

25:                                               ; preds = %17
  %26 = load ptr, ptr %6, align 8, !tbaa !12
  store ptr %26, ptr @gBundle, align 8, !tbaa !12
  store i32 0, ptr %7, align 4
  br label %27

27:                                               ; preds = %25, %24
  call void @llvm.lifetime.end.p0(i64 8, ptr %6) #8
  %28 = load i32, ptr %7, align 4
  switch i32 %28, label %34 [
    i32 0, label %29
    i32 1, label %32
  ]

29:                                               ; preds = %27
  br label %30

30:                                               ; preds = %29
  %31 = load ptr, ptr @gBundle, align 8, !tbaa !12
  store ptr %31, ptr %3, align 8
  br label %32

32:                                               ; preds = %30, %27, %15, %11
  %33 = load ptr, ptr %3, align 8
  ret ptr %33

34:                                               ; preds = %27
  unreachable
}