; Function Attrs: nounwind uwtable
define dso_local ptr @u_wmsg_setPath(ptr noundef %0, ptr noundef %1) local_unnamed_addr #0 {
  %3 = load i32, ptr %1, align 4, !tbaa !4
  %4 = icmp sgt i32 %3, 0
  br i1 %4, label %._crit_edge, label %5

5:                                                ; preds = %2
  %6 = load ptr, ptr @gBundle, align 8, !tbaa !8
  %.not = icmp eq ptr %6, null
  br i1 %.not, label %8, label %7

7:                                                ; preds = %5
  store i32 1, ptr %1, align 4, !tbaa !4
  br label %._crit_edge

8:                                                ; preds = %5
  %9 = tail call ptr @ures_open_77(ptr noundef %0, ptr noundef null, ptr noundef nonnull %1) #8
  %10 = load i32, ptr %1, align 4, !tbaa !4
  %11 = icmp slt i32 %10, 1
  br i1 %11, label %12, label %._crit_edge

12:                                               ; preds = %8
  store ptr %9, ptr @gBundle, align 8, !tbaa !8
  br label %._crit_edge

._crit_edge:                                      ; preds = %12, %8, %2, %7
  %.07 = phi ptr [ null, %7 ], [ null, %2 ], [ %9, %12 ], [ null, %8 ]
  ret ptr %.07
}